target datalayout = "e-m:e-p270:32:32-p271:32:32-p272:64:64-i64:64-i128:128-f80:128-n8:16:32:64-S128"
target triple = "x86_64-pc-linux-gnu"

%"class.cv::Size_" = type { i32, i32 }
%"class.cv::detail::SeamFinder" = type { ptr }
%"class.std::vector.20" = type { %"struct.std::_Vector_base.21" }
%"struct.std::_Vector_base.21" = type { %"struct.std::_Vector_base<cv::Point_<int>, std::allocator<cv::Point_<int>>>::_Vector_impl" }
%"struct.std::_Vector_base<cv::Point_<int>, std::allocator<cv::Point_<int>>>::_Vector_impl" = type { %"struct.std::_Vector_base<cv::Point_<int>, std::allocator<cv::Point_<int>>>::_Vector_impl_data" }
%"struct.std::_Vector_base<cv::Point_<int>, std::allocator<cv::Point_<int>>>::_Vector_impl_data" = type { ptr, ptr, ptr }
%"struct.cv::MatSize" = type { ptr }
%"struct.cv::MatStep" = type { ptr, [2 x i64] }
%"class.cv::Point_" = type { i32, i32 }
%"class.cv::Mat" = type { i32, i32, i32, i32, ptr, ptr, ptr, ptr, ptr, ptr, %"struct.cv::MatSize", %"struct.cv::MatStep" }
%"class.cv::detail::DpSeamFinder" = type { %"class.cv::detail::SeamFinder", i32, %"class.cv::Point_", %"class.cv::Point_", %"class.cv::Size_", %"class.cv::Mat_", %"class.cv::Mat_", %"class.cv::Mat_", %"class.cv::Mat_", %"class.cv::Mat_.25", %"class.cv::Mat_.25", %"class.cv::Mat_.25", %"class.cv::Mat_.25", i32, %"class.cv::Mat_.26", %"class.std::vector.27", %"class.std::vector.20", %"class.std::vector.20", %"class.std::vector.32", %"class.std::set" }
%"class.cv::Mat_" = type { %"class.cv::Mat" }
%"class.cv::Mat_.25" = type { %"class.cv::Mat" }
%"class.cv::Mat_.26" = type { %"class.cv::Mat" }
%"class.std::vector.27" = type { %"struct.std::_Vector_base.28" }
%"struct.std::_Vector_base.28" = type { %"struct.std::_Vector_base<cv::detail::DpSeamFinder::ComponentState, std::allocator<cv::detail::DpSeamFinder::ComponentState>>::_Vector_impl" }
%"struct.std::_Vector_base<cv::detail::DpSeamFinder::ComponentState, std::allocator<cv::detail::DpSeamFinder::ComponentState>>::_Vector_impl" = type { %"struct.std::_Vector_base<cv::detail::DpSeamFinder::ComponentState, std::allocator<cv::detail::DpSeamFinder::ComponentState>>::_Vector_impl_data" }
%"struct.std::_Vector_base<cv::detail::DpSeamFinder::ComponentState, std::allocator<cv::detail::DpSeamFinder::ComponentState>>::_Vector_impl_data" = type { ptr, ptr, ptr }
%"class.std::vector.32" = type { %"struct.std::_Vector_base.33" }
%"struct.std::_Vector_base.33" = type { %"struct.std::_Vector_base<std::vector<cv::Point_<int>>, std::allocator<std::vector<cv::Point_<int>>>>::_Vector_impl" }
%"struct.std::_Vector_base<std::vector<cv::Point_<int>>, std::allocator<std::vector<cv::Point_<int>>>>::_Vector_impl" = type { %"struct.std::_Vector_base<std::vector<cv::Point_<int>>, std::allocator<std::vector<cv::Point_<int>>>>::_Vector_impl_data" }
%"struct.std::_Vector_base<std::vector<cv::Point_<int>>, std::allocator<std::vector<cv::Point_<int>>>>::_Vector_impl_data" = type { ptr, ptr, ptr }
%"class.std::set" = type { %"class.std::_Rb_tree" }
%"class.std::_Rb_tree" = type { %"struct.std::_Rb_tree<std::pair<int, int>, std::pair<int, int>, std::_Identity<std::pair<int, int>>, std::less<std::pair<int, int>>>::_Rb_tree_impl" }
%"struct.std::_Rb_tree<std::pair<int, int>, std::pair<int, int>, std::_Identity<std::pair<int, int>>, std::less<std::pair<int, int>>>::_Rb_tree_impl" = type { [8 x i8], %"struct.std::_Rb_tree_header" }
%"struct.std::_Rb_tree_header" = type { %"struct.std::_Rb_tree_node_base", i64 }
%"struct.std::_Rb_tree_node_base" = type { i32, ptr, ptr, ptr }

; Function Attrs: inlinehint mustprogress nounwind uwtable
define linkonce_odr hidden noundef nonnull align 1 dereferenceable(1) ptr @_ZNK2cv4Mat_IhEclEii(ptr noundef nonnull align 8 dereferenceable(96) %0, i32 noundef %1, i32 noundef %2) #7 comdat align 2 {
  %4 = alloca ptr, align 8
  %5 = alloca i32, align 4
  %6 = alloca i32, align 4
  store ptr %0, ptr %4, align 8, !tbaa !141
  store i32 %1, ptr %5, align 4, !tbaa !3
  store i32 %2, ptr %6, align 4, !tbaa !3
  %7 = load ptr, ptr %4, align 8
  %8 = getelementptr inbounds nuw %"class.cv::Mat", ptr %7, i32 0, i32 4
  %9 = load ptr, ptr %8, align 8, !tbaa !87
  %10 = getelementptr inbounds nuw %"class.cv::Mat", ptr %7, i32 0, i32 11
  %11 = getelementptr inbounds nuw %"struct.cv::MatStep", ptr %10, i32 0, i32 0
  %12 = load ptr, ptr %11, align 8, !tbaa !93
  %13 = getelementptr inbounds i64, ptr %12, i64 0
  %14 = load i64, ptr %13, align 8, !tbaa !28
  %15 = load i32, ptr %5, align 4, !tbaa !3
  %16 = sext i32 %15 to i64
  %17 = mul i64 %14, %16
  %18 = getelementptr inbounds nuw i8, ptr %9, i64 %17
  %19 = load i32, ptr %6, align 4, !tbaa !3
  %20 = sext i32 %19 to i64
  %21 = getelementptr inbounds i8, ptr %18, i64 %20
  ret ptr %21
}

; Function Attrs: mustprogress uwtable
define noundef zeroext i1 @_ZN2cv6detail12DpSeamFinder14closeToContourEiiRKNS_4Mat_IhEE(ptr noundef nonnull align 8 dereferenceable(1056) %0, i32 noundef %1, i32 noundef %2, ptr noundef nonnull align 8 dereferenceable(96) %3) #4 align 2 {
  %5 = alloca i1, align 1
  %6 = alloca ptr, align 8
  %7 = alloca i32, align 4
  %8 = alloca i32, align 4
  %9 = alloca ptr, align 8
  %10 = alloca i32, align 4
  %11 = alloca i32, align 4
  %12 = alloca i32, align 4
  %13 = alloca i32, align 4
  store ptr %0, ptr %6, align 8, !tbaa !108
  store i32 %1, ptr %7, align 4, !tbaa !3
  store i32 %2, ptr %8, align 4, !tbaa !3
  store ptr %3, ptr %9, align 8, !tbaa !141
  %14 = load ptr, ptr %6, align 8
  call void @llvm.lifetime.start.p0(i64 4, ptr %10) #3
  store i32 2, ptr %10, align 4, !tbaa !3
  call void @llvm.lifetime.start.p0(i64 4, ptr %11) #3
  store i32 -2, ptr %11, align 4, !tbaa !3
  br label %15

15:                                               ; preds = %70, %4
  %16 = load i32, ptr %11, align 4, !tbaa !3
  %17 = icmp sle i32 %16, 2
  br i1 %17, label %19, label %18

18:                                               ; preds = %15
  store i32 2, ptr %12, align 4
  br label %73

19:                                               ; preds = %15
  %20 = load i32, ptr %7, align 4, !tbaa !3
  %21 = load i32, ptr %11, align 4, !tbaa !3
  %22 = add nsw i32 %20, %21
  %23 = icmp sge i32 %22, 0
  br i1 %23, label %24, label %69

24:                                               ; preds = %19
  %25 = load i32, ptr %7, align 4, !tbaa !3
  %26 = load i32, ptr %11, align 4, !tbaa !3
  %27 = add nsw i32 %25, %26
  %28 = getelementptr inbounds nuw %"class.cv::detail::DpSeamFinder", ptr %14, i32 0, i32 4
  %29 = getelementptr inbounds nuw %"class.cv::Size_", ptr %28, i32 0, i32 1
  %30 = load i32, ptr %29, align 4, !tbaa !193
  %31 = icmp slt i32 %27, %30
  br i1 %31, label %32, label %69

32:                                               ; preds = %24
  call void @llvm.lifetime.start.p0(i64 4, ptr %13) #3
  store i32 -2, ptr %13, align 4, !tbaa !3
  br label %33

33:                                               ; preds = %63, %32
  %34 = load i32, ptr %13, align 4, !tbaa !3
  %35 = icmp sle i32 %34, 2
  br i1 %35, label %37, label %36

36:                                               ; preds = %33
  store i32 5, ptr %12, align 4
  br label %66

37:                                               ; preds = %33
  %38 = load i32, ptr %8, align 4, !tbaa !3
  %39 = load i32, ptr %13, align 4, !tbaa !3
  %40 = add nsw i32 %38, %39
  %41 = icmp sge i32 %40, 0
  br i1 %41, label %42, label %62

42:                                               ; preds = %37
  %43 = load i32, ptr %8, align 4, !tbaa !3
  %44 = load i32, ptr %13, align 4, !tbaa !3
  %45 = add nsw i32 %43, %44
  %46 = getelementptr inbounds nuw %"class.cv::detail::DpSeamFinder", ptr %14, i32 0, i32 4
  %47 = getelementptr inbounds nuw %"class.cv::Size_", ptr %46, i32 0, i32 0
  %48 = load i32, ptr %47, align 4, !tbaa !194
  %49 = icmp slt i32 %45, %48
  br i1 %49, label %50, label %62

50:                                               ; preds = %42
  %51 = load ptr, ptr %9, align 8, !tbaa !141
  %52 = load i32, ptr %7, align 4, !tbaa !3
  %53 = load i32, ptr %11, align 4, !tbaa !3
  %54 = add nsw i32 %52, %53
  %55 = load i32, ptr %8, align 4, !tbaa !3
  %56 = load i32, ptr %13, align 4, !tbaa !3
  %57 = add nsw i32 %55, %56
  %58 = call noundef nonnull align 1 dereferenceable(1) ptr @_ZNK2cv4Mat_IhEclEii(ptr noundef nonnull align 8 dereferenceable(96) %51, i32 noundef %54, i32 noundef %57)
  %59 = load i8, ptr %58, align 1, !tbaa !78
  %60 = icmp ne i8 %59, 0
  br i1 %60, label %61, label %62

61:                                               ; preds = %50
  store i1 true, ptr %5, align 1
  store i32 1, ptr %12, align 4
  br label %66

62:                                               ; preds = %50, %42, %37
  br label %63

63:                                               ; preds = %62
  %64 = load i32, ptr %13, align 4, !tbaa !3
  %65 = add nsw i32 %64, 1
  store i32 %65, ptr %13, align 4, !tbaa !3
  br label %33, !llvm.loop !289

66:                                               ; preds = %61, %36
  call void @llvm.lifetime.end.p0(i64 4, ptr %13) #3
  %67 = load i32, ptr %12, align 4
  switch i32 %67, label %73 [
    i32 5, label %68
  ]

68:                                               ; preds = %66
  br label %69

69:                                               ; preds = %68, %24, %19
  br label %70

70:                                               ; preds = %69
  %71 = load i32, ptr %11, align 4, !tbaa !3
  %72 = add nsw i32 %71, 1
  store i32 %72, ptr %11, align 4, !tbaa !3
  br label %15, !llvm.loop !290

73:                                               ; preds = %66, %18
  call void @llvm.lifetime.end.p0(i64 4, ptr %11) #3
  %74 = load i32, ptr %12, align 4
  switch i32 %74, label %76 [
    i32 2, label %75
  ]

75:                                               ; preds = %73
  store i1 false, ptr %5, align 1
  store i32 1, ptr %12, align 4
  br label %76

76:                                               ; preds = %75, %73
  call void @llvm.lifetime.end.p0(i64 4, ptr %10) #3
  %77 = load i1, ptr %5, align 1
  ret i1 %77
}