; Function Attrs: mustprogress nofree norecurse nosync nounwind willreturn memory(read, inaccessiblemem: none) uwtable
define noundef zeroext i1 @_ZN2cv6detail12DpSeamFinder14closeToContourEiiRKNS_4Mat_IhEE(ptr noundef nonnull readonly align 8 captures(none) dereferenceable(1056) %0, i32 noundef %1, i32 noundef %2, ptr noundef nonnull readonly align 8 captures(none) dereferenceable(96) %3) local_unnamed_addr #12 align 2 {
  %5 = getelementptr inbounds nuw i8, ptr %0, i64 28
  %6 = getelementptr inbounds nuw i8, ptr %0, i64 32
  %7 = load i32, ptr %6, align 8
  %8 = load i32, ptr %5, align 4
  %9 = getelementptr inbounds nuw i8, ptr %3, i64 16
  %10 = load ptr, ptr %9, align 8
  %11 = getelementptr inbounds nuw i8, ptr %3, i64 72
  %12 = load ptr, ptr %11, align 8
  br label %13

13:                                               ; preds = %4, %.critedge
  %.02233 = phi i32 [ -2, %4 ], [ %31, %.critedge ]
  %14 = add nsw i32 %.02233, %1
  %15 = icmp sgt i32 %14, -1
  %16 = icmp slt i32 %14, %7
  %or.cond34 = select i1 %15, i1 %16, i1 false
  br i1 %or.cond34, label %.preheader, label %.critedge

.preheader:                                       ; preds = %13
  %17 = zext nneg i32 %14 to i64
  br label %18

18:                                               ; preds = %.preheader, %29
  %.032 = phi i32 [ -2, %.preheader ], [ %30, %29 ]
  %19 = add nsw i32 %.032, %2
  %20 = icmp sgt i32 %19, -1
  %21 = icmp slt i32 %19, %8
  %or.cond = select i1 %20, i1 %21, i1 false
  br i1 %or.cond, label %22, label %29

22:                                               ; preds = %18
  %23 = load i64, ptr %12, align 8, !tbaa !84
  %24 = mul i64 %23, %17
  %25 = getelementptr inbounds nuw i8, ptr %10, i64 %24
  %26 = zext nneg i32 %19 to i64
  %27 = getelementptr inbounds nuw i8, ptr %25, i64 %26
  %28 = load i8, ptr %27, align 1, !tbaa !85
  %.not = icmp eq i8 %28, 0
  br i1 %.not, label %29, label %.critedge29

29:                                               ; preds = %18, %22
  %30 = add nsw i32 %.032, 1
  %exitcond = icmp eq i32 %30, 3
  br i1 %exitcond, label %.critedge, label %18, !llvm.loop !261

.critedge:                                        ; preds = %29, %13
  %31 = add nsw i32 %.02233, 1
  %exitcond36.not = icmp eq i32 %31, 3
  br i1 %exitcond36.not, label %.critedge29, label %13, !llvm.loop !262

.critedge29:                                      ; preds = %.critedge, %22
  %32 = phi i1 [ true, %22 ], [ false, %.critedge ]
  ret i1 %32
}